target datalayout = "e-m:e-p270:32:32-p271:32:32-p272:64:64-i64:64-i128:128-f80:128-n8:16:32:64-S128"
target triple = "x86_64-pc-linux-gnu"

%struct.mspack_system = type { ptr, ptr, ptr, ptr, ptr, ptr, ptr, ptr, ptr, ptr, ptr }
%struct.msszdd_decompressor_p = type { %struct.msszdd_decompressor, ptr, i32 }
%struct.msszdd_decompressor = type { ptr, ptr, ptr, ptr, ptr }
%struct.msszddd_header_p = type { %struct.msszddd_header, ptr }
%struct.msszddd_header = type { i32, i64, i8 }

; Function Attrs: nounwind uwtable
define internal void @szddd_close(ptr noundef %0, ptr noundef %1) #0 {
  %3 = alloca ptr, align 8
  %4 = alloca ptr, align 8
  %5 = alloca ptr, align 8
  %6 = alloca ptr, align 8
  %7 = alloca i32, align 4
  store ptr %0, ptr %3, align 8, !tbaa !22
  store ptr %1, ptr %4, align 8, !tbaa !29
  call void @llvm.lifetime.start.p0(i64 8, ptr %5) #4
  %8 = load ptr, ptr %3, align 8, !tbaa !22
  store ptr %8, ptr %5, align 8, !tbaa !8
  call void @llvm.lifetime.start.p0(i64 8, ptr %6) #4
  %9 = load ptr, ptr %4, align 8, !tbaa !29
  store ptr %9, ptr %6, align 8, !tbaa !37
  %10 = load ptr, ptr %5, align 8, !tbaa !8
  %11 = icmp ne ptr %10, null
  br i1 %11, label %12, label %17

12:                                               ; preds = %2
  %13 = load ptr, ptr %5, align 8, !tbaa !8
  %14 = getelementptr inbounds nuw %struct.msszdd_decompressor_p, ptr %13, i32 0, i32 1
  %15 = load ptr, ptr %14, align 8, !tbaa !20
  %16 = icmp ne ptr %15, null
  br i1 %16, label %18, label %17

17:                                               ; preds = %12, %2
  store i32 1, ptr %7, align 4
  br label %35

18:                                               ; preds = %12
  %19 = load ptr, ptr %5, align 8, !tbaa !8
  %20 = getelementptr inbounds nuw %struct.msszdd_decompressor_p, ptr %19, i32 0, i32 1
  %21 = load ptr, ptr %20, align 8, !tbaa !20
  %22 = getelementptr inbounds nuw %struct.mspack_system, ptr %21, i32 0, i32 1
  %23 = load ptr, ptr %22, align 8, !tbaa !35
  %24 = load ptr, ptr %6, align 8, !tbaa !37
  %25 = getelementptr inbounds nuw %struct.msszddd_header_p, ptr %24, i32 0, i32 1
  %26 = load ptr, ptr %25, align 8, !tbaa !31
  call void %23(ptr noundef %26)
  %27 = load ptr, ptr %5, align 8, !tbaa !8
  %28 = getelementptr inbounds nuw %struct.msszdd_decompressor_p, ptr %27, i32 0, i32 1
  %29 = load ptr, ptr %28, align 8, !tbaa !20
  %30 = getelementptr inbounds nuw %struct.mspack_system, ptr %29, i32 0, i32 8
  %31 = load ptr, ptr %30, align 8, !tbaa !36
  %32 = load ptr, ptr %4, align 8, !tbaa !29
  call void %31(ptr noundef %32)
  %33 = load ptr, ptr %5, align 8, !tbaa !8
  %34 = getelementptr inbounds nuw %struct.msszdd_decompressor_p, ptr %33, i32 0, i32 2
  store i32 0, ptr %34, align 8, !tbaa !21
  store i32 0, ptr %7, align 4
  br label %35

35:                                               ; preds = %18, %17
  call void @llvm.lifetime.end.p0(i64 8, ptr %6) #4
  call void @llvm.lifetime.end.p0(i64 8, ptr %5) #4
  %36 = load i32, ptr %7, align 4
  switch i32 %36, label %38 [
    i32 0, label %37
    i32 1, label %37
  ]

37:                                               ; preds = %35, %35
  ret void

38:                                               ; preds = %35
  unreachable
}

; Function Attrs: nounwind uwtable
define internal i32 @szddd_extract(ptr noundef %0, ptr noundef %1, ptr noundef %2) #0 {
  %4 = alloca i32, align 4
  %5 = alloca ptr, align 8
  %6 = alloca ptr, align 8
  %7 = alloca ptr, align 8
  %8 = alloca ptr, align 8
  %9 = alloca ptr, align 8
  %10 = alloca ptr, align 8
  %11 = alloca ptr, align 8
  %12 = alloca i64, align 8
  %13 = alloca i32, align 4
  store ptr %0, ptr %5, align 8, !tbaa !22
  store ptr %1, ptr %6, align 8, !tbaa !29
  store ptr %2, ptr %7, align 8, !tbaa !24
  call void @llvm.lifetime.start.p0(i64 8, ptr %8) #4
  %14 = load ptr, ptr %5, align 8, !tbaa !22
  store ptr %14, ptr %8, align 8, !tbaa !8
  call void @llvm.lifetime.start.p0(i64 8, ptr %9) #4
  call void @llvm.lifetime.start.p0(i64 8, ptr %10) #4
  call void @llvm.lifetime.start.p0(i64 8, ptr %11) #4
  call void @llvm.lifetime.start.p0(i64 8, ptr %12) #4
  %15 = load ptr, ptr %8, align 8, !tbaa !8
  %16 = icmp ne ptr %15, null
  br i1 %16, label %18, label %17

17:                                               ; preds = %3
  store i32 1, ptr %4, align 4
  store i32 1, ptr %13, align 4
  br label %77

18:                                               ; preds = %3
  %19 = load ptr, ptr %6, align 8, !tbaa !29
  %20 = icmp ne ptr %19, null
  br i1 %20, label %24, label %21

21:                                               ; preds = %18
  %22 = load ptr, ptr %8, align 8, !tbaa !8
  %23 = getelementptr inbounds nuw %struct.msszdd_decompressor_p, ptr %22, i32 0, i32 2
  store i32 1, ptr %23, align 8, !tbaa !21
  store i32 1, ptr %4, align 4
  store i32 1, ptr %13, align 4
  br label %77

24:                                               ; preds = %18
  %25 = load ptr, ptr %8, align 8, !tbaa !8
  %26 = getelementptr inbounds nuw %struct.msszdd_decompressor_p, ptr %25, i32 0, i32 1
  %27 = load ptr, ptr %26, align 8, !tbaa !20
  store ptr %27, ptr %11, align 8, !tbaa !3
  %28 = load ptr, ptr %6, align 8, !tbaa !29
  %29 = getelementptr inbounds nuw %struct.msszddd_header_p, ptr %28, i32 0, i32 1
  %30 = load ptr, ptr %29, align 8, !tbaa !31
  store ptr %30, ptr %9, align 8, !tbaa !27
  %31 = load ptr, ptr %6, align 8, !tbaa !29
  %32 = getelementptr inbounds nuw %struct.msszddd_header, ptr %31, i32 0, i32 0
  %33 = load i32, ptr %32, align 8, !tbaa !39
  %34 = icmp eq i32 %33, 0
  %35 = select i1 %34, i32 14, i32 12
  %36 = sext i32 %35 to i64
  store i64 %36, ptr %12, align 8, !tbaa !40
  %37 = load ptr, ptr %11, align 8, !tbaa !3
  %38 = getelementptr inbounds nuw %struct.mspack_system, ptr %37, i32 0, i32 4
  %39 = load ptr, ptr %38, align 8, !tbaa !41
  %40 = load ptr, ptr %9, align 8, !tbaa !27
  %41 = load i64, ptr %12, align 8, !tbaa !40
  %42 = call i32 %39(ptr noundef %40, i64 noundef %41, i32 noundef 0)
  %43 = icmp ne i32 %42, 0
  br i1 %43, label %44, label %47

44:                                               ; preds = %24
  %45 = load ptr, ptr %8, align 8, !tbaa !8
  %46 = getelementptr inbounds nuw %struct.msszdd_decompressor_p, ptr %45, i32 0, i32 2
  store i32 5, ptr %46, align 8, !tbaa !21
  store i32 5, ptr %4, align 4
  store i32 1, ptr %13, align 4
  br label %77

47:                                               ; preds = %24
  %48 = load ptr, ptr %11, align 8, !tbaa !3
  %49 = getelementptr inbounds nuw %struct.mspack_system, ptr %48, i32 0, i32 0
  %50 = load ptr, ptr %49, align 8, !tbaa !26
  %51 = load ptr, ptr %11, align 8, !tbaa !3
  %52 = load ptr, ptr %7, align 8, !tbaa !24
  %53 = call ptr %50(ptr noundef %51, ptr noundef %52, i32 noundef 1)
  store ptr %53, ptr %10, align 8, !tbaa !27
  %54 = icmp ne ptr %53, null
  br i1 %54, label %58, label %55

55:                                               ; preds = %47
  %56 = load ptr, ptr %8, align 8, !tbaa !8
  %57 = getelementptr inbounds nuw %struct.msszdd_decompressor_p, ptr %56, i32 0, i32 2
  store i32 2, ptr %57, align 8, !tbaa !21
  store i32 2, ptr %4, align 4
  store i32 1, ptr %13, align 4
  br label %77

58:                                               ; preds = %47
  %59 = load ptr, ptr %11, align 8, !tbaa !3
  %60 = load ptr, ptr %9, align 8, !tbaa !27
  %61 = load ptr, ptr %10, align 8, !tbaa !27
  %62 = load ptr, ptr %6, align 8, !tbaa !29
  %63 = getelementptr inbounds nuw %struct.msszddd_header, ptr %62, i32 0, i32 0
  %64 = load i32, ptr %63, align 8, !tbaa !39
  %65 = icmp eq i32 %64, 0
  %66 = select i1 %65, i32 0, i32 2
  %67 = call i32 @lzss_decompress(ptr noundef %59, ptr noundef %60, ptr noundef %61, i32 noundef 2048, i32 noundef %66)
  %68 = load ptr, ptr %8, align 8, !tbaa !8
  %69 = getelementptr inbounds nuw %struct.msszdd_decompressor_p, ptr %68, i32 0, i32 2
  store i32 %67, ptr %69, align 8, !tbaa !21
  %70 = load ptr, ptr %11, align 8, !tbaa !3
  %71 = getelementptr inbounds nuw %struct.mspack_system, ptr %70, i32 0, i32 1
  %72 = load ptr, ptr %71, align 8, !tbaa !35
  %73 = load ptr, ptr %10, align 8, !tbaa !27
  call void %72(ptr noundef %73)
  %74 = load ptr, ptr %8, align 8, !tbaa !8
  %75 = getelementptr inbounds nuw %struct.msszdd_decompressor_p, ptr %74, i32 0, i32 2
  %76 = load i32, ptr %75, align 8, !tbaa !21
  store i32 %76, ptr %4, align 4
  store i32 1, ptr %13, align 4
  br label %77

77:                                               ; preds = %58, %55, %44, %21, %17
  call void @llvm.lifetime.end.p0(i64 8, ptr %12) #4
  call void @llvm.lifetime.end.p0(i64 8, ptr %11) #4
  call void @llvm.lifetime.end.p0(i64 8, ptr %10) #4
  call void @llvm.lifetime.end.p0(i64 8, ptr %9) #4
  call void @llvm.lifetime.end.p0(i64 8, ptr %8) #4
  %78 = load i32, ptr %4, align 4
  ret i32 %78
}

; Function Attrs: nounwind uwtable
define internal i32 @szddd_decompress(ptr noundef %0, ptr noundef %1, ptr noundef %2) #0 {
  %4 = alloca i32, align 4
  %5 = alloca ptr, align 8
  %6 = alloca ptr, align 8
  %7 = alloca ptr, align 8
  %8 = alloca ptr, align 8
  %9 = alloca ptr, align 8
  %10 = alloca i32, align 4
  %11 = alloca i32, align 4
  store ptr %0, ptr %5, align 8, !tbaa !22
  store ptr %1, ptr %6, align 8, !tbaa !24
  store ptr %2, ptr %7, align 8, !tbaa !24
  call void @llvm.lifetime.start.p0(i64 8, ptr %8) #4
  %12 = load ptr, ptr %5, align 8, !tbaa !22
  store ptr %12, ptr %8, align 8, !tbaa !8
  call void @llvm.lifetime.start.p0(i64 8, ptr %9) #4
  call void @llvm.lifetime.start.p0(i64 4, ptr %10) #4
  %13 = load ptr, ptr %8, align 8, !tbaa !8
  %14 = icmp ne ptr %13, null
  br i1 %14, label %16, label %15

15:                                               ; preds = %3
  store i32 1, ptr %4, align 4
  store i32 1, ptr %11, align 4
  br label %35

16:                                               ; preds = %3
  %17 = load ptr, ptr %5, align 8, !tbaa !22
  %18 = load ptr, ptr %6, align 8, !tbaa !24
  %19 = call ptr @szddd_open(ptr noundef %17, ptr noundef %18)
  store ptr %19, ptr %9, align 8, !tbaa !29
  %20 = icmp ne ptr %19, null
  br i1 %20, label %25, label %21

21:                                               ; preds = %16
  %22 = load ptr, ptr %8, align 8, !tbaa !8
  %23 = getelementptr inbounds nuw %struct.msszdd_decompressor_p, ptr %22, i32 0, i32 2
  %24 = load i32, ptr %23, align 8, !tbaa !21
  store i32 %24, ptr %4, align 4
  store i32 1, ptr %11, align 4
  br label %35

25:                                               ; preds = %16
  %26 = load ptr, ptr %5, align 8, !tbaa !22
  %27 = load ptr, ptr %9, align 8, !tbaa !29
  %28 = load ptr, ptr %7, align 8, !tbaa !24
  %29 = call i32 @szddd_extract(ptr noundef %26, ptr noundef %27, ptr noundef %28)
  store i32 %29, ptr %10, align 4, !tbaa !42
  %30 = load ptr, ptr %5, align 8, !tbaa !22
  %31 = load ptr, ptr %9, align 8, !tbaa !29
  call void @szddd_close(ptr noundef %30, ptr noundef %31)
  %32 = load i32, ptr %10, align 4, !tbaa !42
  %33 = load ptr, ptr %8, align 8, !tbaa !8
  %34 = getelementptr inbounds nuw %struct.msszdd_decompressor_p, ptr %33, i32 0, i32 2
  store i32 %32, ptr %34, align 8, !tbaa !21
  store i32 %32, ptr %4, align 4
  store i32 1, ptr %11, align 4
  br label %35

35:                                               ; preds = %25, %21, %15
  call void @llvm.lifetime.end.p0(i64 4, ptr %10) #4
  call void @llvm.lifetime.end.p0(i64 8, ptr %9) #4
  call void @llvm.lifetime.end.p0(i64 8, ptr %8) #4
  %36 = load i32, ptr %4, align 4
  ret i32 %36
}