; Function Attrs: nounwind uwtable
define internal i32 @szddd_decompress(ptr noundef %0, ptr noundef %1, ptr noundef %2) #0 {
  %.not = icmp eq ptr %0, null
  br i1 %.not, label %45, label %4

4:                                                ; preds = %3
  %5 = tail call ptr @szddd_open(ptr noundef nonnull %0, ptr noundef %1)
  %.not14 = icmp eq ptr %5, null
  br i1 %.not14, label %6, label %9

6:                                                ; preds = %4
  %7 = getelementptr inbounds nuw i8, ptr %0, i64 48
  %8 = load i32, ptr %7, align 8, !tbaa !18
  br label %45

9:                                                ; preds = %4
  %10 = getelementptr inbounds nuw i8, ptr %0, i64 40
  %11 = load ptr, ptr %10, align 8, !tbaa !17
  %12 = getelementptr inbounds nuw i8, ptr %5, i64 24
  %13 = load ptr, ptr %12, align 8, !tbaa !20
  %14 = load i32, ptr %5, align 8, !tbaa !26
  %15 = icmp eq i32 %14, 0
  %16 = select i1 %15, i64 14, i64 12
  %17 = getelementptr inbounds nuw i8, ptr %11, i64 32
  %18 = load ptr, ptr %17, align 8, !tbaa !32
  %19 = tail call i32 %18(ptr noundef %13, i64 noundef %16, i32 noundef 0) #5
  %.not27.i = icmp eq i32 %19, 0
  br i1 %.not27.i, label %22, label %20

20:                                               ; preds = %9
  %21 = getelementptr inbounds nuw i8, ptr %0, i64 48
  store i32 5, ptr %21, align 8, !tbaa !18
  br label %szddd_extract.exit

22:                                               ; preds = %9
  %23 = load ptr, ptr %11, align 8, !tbaa !19
  %24 = tail call ptr %23(ptr noundef nonnull %11, ptr noundef %2, i32 noundef 1) #5
  %.not28.i = icmp eq ptr %24, null
  br i1 %.not28.i, label %25, label %27

25:                                               ; preds = %22
  %26 = getelementptr inbounds nuw i8, ptr %0, i64 48
  store i32 2, ptr %26, align 8, !tbaa !18
  br label %szddd_extract.exit

27:                                               ; preds = %22
  %28 = load i32, ptr %5, align 8, !tbaa !26
  %29 = icmp eq i32 %28, 0
  %30 = select i1 %29, i32 0, i32 2
  %31 = tail call i32 @lzss_decompress(ptr noundef nonnull %11, ptr noundef %13, ptr noundef nonnull %24, i32 noundef 2048, i32 noundef %30) #5
  %32 = getelementptr inbounds nuw i8, ptr %0, i64 48
  store i32 %31, ptr %32, align 8, !tbaa !18
  %33 = getelementptr inbounds nuw i8, ptr %11, i64 8
  %34 = load ptr, ptr %33, align 8, !tbaa !30
  tail call void %34(ptr noundef nonnull %24) #5
  %35 = load i32, ptr %32, align 8, !tbaa !18
  br label %szddd_extract.exit

szddd_extract.exit:                               ; preds = %27, %25, %20
  %.0.i = phi i32 [ 5, %20 ], [ %35, %27 ], [ 2, %25 ]
  %36 = load ptr, ptr %10, align 8, !tbaa !17
  %.not10.i = icmp eq ptr %36, null
  br i1 %.not10.i, label %szddd_close.exit, label %37

37:                                               ; preds = %szddd_extract.exit
  %38 = getelementptr inbounds nuw i8, ptr %36, i64 8
  %39 = load ptr, ptr %38, align 8, !tbaa !30
  %40 = load ptr, ptr %12, align 8, !tbaa !20
  tail call void %39(ptr noundef %40) #5
  %41 = load ptr, ptr %10, align 8, !tbaa !17
  %42 = getelementptr inbounds nuw i8, ptr %41, i64 64
  %43 = load ptr, ptr %42, align 8, !tbaa !31
  tail call void %43(ptr noundef nonnull %5) #5
  br label %szddd_close.exit

szddd_close.exit:                                 ; preds = %szddd_extract.exit, %37
  %44 = getelementptr inbounds nuw i8, ptr %0, i64 48
  store i32 %.0.i, ptr %44, align 8, !tbaa !18
  br label %45

45:                                               ; preds = %3, %szddd_close.exit, %6
  %.0 = phi i32 [ %.0.i, %szddd_close.exit ], [ %8, %6 ], [ 1, %3 ]
  ret i32 %.0
}